target datalayout = "e-m:e-p270:32:32-p271:32:32-p272:64:64-i64:64-i128:128-f80:128-n8:16:32:64-S128"
target triple = "x86_64-pc-linux-gnu"

; Function Attrs: nounwind uwtable
define ptr @d2i_PrivateKey_ex(i32 noundef %0, ptr noundef %1, ptr noundef %2, i64 noundef %3, ptr noundef %4, ptr noundef %5) #0 {
  %7 = alloca i32, align 4
  %8 = alloca ptr, align 8
  %9 = alloca ptr, align 8
  %10 = alloca i64, align 8
  %11 = alloca ptr, align 8
  %12 = alloca ptr, align 8
  %13 = alloca ptr, align 8
  store i32 %0, ptr %7, align 4, !tbaa !3
  store ptr %1, ptr %8, align 8, !tbaa !7
  store ptr %2, ptr %9, align 8, !tbaa !10
  store i64 %3, ptr %10, align 8, !tbaa !12
  store ptr %4, ptr %11, align 8, !tbaa !14
  store ptr %5, ptr %12, align 8, !tbaa !16
  call void @llvm.lifetime.start.p0(i64 8, ptr %13) #4
  %14 = load i32, ptr %7, align 4, !tbaa !3
  %15 = load ptr, ptr %8, align 8, !tbaa !7
  %16 = load ptr, ptr %9, align 8, !tbaa !10
  %17 = load i64, ptr %10, align 8, !tbaa !12
  %18 = load ptr, ptr %11, align 8, !tbaa !14
  %19 = load ptr, ptr %12, align 8, !tbaa !16
  %20 = call ptr @d2i_PrivateKey_decoder(i32 noundef %14, ptr noundef %15, ptr noundef %16, i64 noundef %17, ptr noundef %18, ptr noundef %19)
  store ptr %20, ptr %13, align 8, !tbaa !18
  %21 = load ptr, ptr %13, align 8, !tbaa !18
  %22 = icmp eq ptr %21, null
  br i1 %22, label %23, label %31

23:                                               ; preds = %6
  %24 = load i32, ptr %7, align 4, !tbaa !3
  %25 = load ptr, ptr %8, align 8, !tbaa !7
  %26 = load ptr, ptr %9, align 8, !tbaa !10
  %27 = load i64, ptr %10, align 8, !tbaa !12
  %28 = load ptr, ptr %11, align 8, !tbaa !14
  %29 = load ptr, ptr %12, align 8, !tbaa !16
  %30 = call ptr @ossl_d2i_PrivateKey_legacy(i32 noundef %24, ptr noundef %25, ptr noundef %26, i64 noundef %27, ptr noundef %28, ptr noundef %29)
  store ptr %30, ptr %13, align 8, !tbaa !18
  br label %31

31:                                               ; preds = %23, %6
  %32 = load ptr, ptr %13, align 8, !tbaa !18
  call void @llvm.lifetime.end.p0(i64 8, ptr %13) #4
  ret ptr %32
}

; Function Attrs: nounwind uwtable
define ptr @d2i_PrivateKey(i32 noundef %0, ptr noundef %1, ptr noundef %2, i64 noundef %3) #0 {
  %5 = alloca i32, align 4
  %6 = alloca ptr, align 8
  %7 = alloca ptr, align 8
  %8 = alloca i64, align 8
  store i32 %0, ptr %5, align 4, !tbaa !3
  store ptr %1, ptr %6, align 8, !tbaa !7
  store ptr %2, ptr %7, align 8, !tbaa !10
  store i64 %3, ptr %8, align 8, !tbaa !12
  %9 = load i32, ptr %5, align 4, !tbaa !3
  %10 = load ptr, ptr %6, align 8, !tbaa !7
  %11 = load ptr, ptr %7, align 8, !tbaa !10
  %12 = load i64, ptr %8, align 8, !tbaa !12
  %13 = call ptr @d2i_PrivateKey_ex(i32 noundef %9, ptr noundef %10, ptr noundef %11, i64 noundef %12, ptr noundef null, ptr noundef null)
  ret ptr %13
}