; Function Attrs: nounwind uwtable
define ptr @d2i_PrivateKey(i32 noundef %0, ptr noundef %1, ptr noundef %2, i64 noundef %3) local_unnamed_addr #0 {
  %5 = tail call fastcc ptr @d2i_PrivateKey_decoder(i32 noundef %0, ptr noundef %1, ptr noundef %2, i64 noundef %3, ptr noundef null, ptr noundef null)
  %6 = icmp eq ptr %5, null
  br i1 %6, label %7, label %d2i_PrivateKey_ex.exit

7:                                                ; preds = %4
  %8 = tail call ptr @ossl_d2i_PrivateKey_legacy(i32 noundef %0, ptr noundef %1, ptr noundef %2, i64 noundef %3, ptr noundef null, ptr noundef null)
  br label %d2i_PrivateKey_ex.exit

d2i_PrivateKey_ex.exit:                           ; preds = %4, %7
  %.0.i = phi ptr [ %8, %7 ], [ %5, %4 ]
  ret ptr %.0.i
}